Certificate:
    Data:
        Version: 3 (0x2)
        Serial Number: 1 (0x1)
        Signature Algorithm: sha256WithRSAEncryption
        Issuer: O=Test Org, CN=Test Org rauc CA Development
        Validity
            Not Before: Jan  1 00:00:00 1970 GMT
            Not After : Dec 31 23:59:59 9999 GMT
        Subject: O=Test Org, CN=Test Org rauc CA Development
        Subject Public Key Info:
            Public Key Algorithm: rsaEncryption
                RSA Public-Key: (2048 bit)
                Modulus:
                    00:a7:e2:f4:d9:15:d6:a7:0e:88:1f:7f:b8:ce:a2:
                    8c:09:dd:b3:7d:98:db:21:34:bc:89:c6:c4:45:15:
                    ae:5a:9f:8f:a7:10:01:c3:79:19:a9:6a:77:95:32:
                    05:23:52:e1:52:5c:8c:6f:42:aa:a1:65:c5:6c:32:
                    f8:10:cb:af:dd:d4:e5:7c:64:1e:7b:fd:c1:b2:cd:
                    94:5c:c8:32:0b:6f:0f:d6:f7:9c:4a:e5:26:16:e5:
                    77:63:1a:61:0c:ca:9f:02:1e:e9:7d:29:fc:97:a4:
                    4f:0d:9c:ce:1a:90:fe:74:9f:8d:95:c2:37:89:d6:
                    4d:f1:6f:fc:68:f0:86:a0:e1:f2:d0:50:06:b0:3c:
                    b2:59:99:e1:6f:28:fc:f5:ab:5e:f1:a2:45:64:61:
                    a1:2e:0f:2d:59:b8:8a:c0:34:c1:a4:0c:85:f5:26:
                    20:75:b7:40:ef:ab:a8:0b:39:7f:b1:4f:a5:34:15:
                    4a:4e:47:c7:7f:5b:83:0b:09:79:61:98:fe:9c:a2:
                    ca:8e:e2:a9:89:3b:87:51:3f:46:0e:2e:17:20:26:
                    4f:23:33:c8:bb:4e:9a:2d:9b:64:93:eb:2f:f9:14:
                    06:d2:ac:36:c4:8f:41:b5:78:a3:96:ab:7c:b0:e7:
                    89:34:67:50:f4:32:c7:a9:9b:64:ec:d7:1d:ab:87:
                    b6:67
                Exponent: 65537 (0x10001)
        X509v3 extensions:
            X509v3 Subject Key Identifier: 
                24:DF:24:E8:8E:78:99:BF:F4:DB:EE:49:9F:CF:DB:E8:CA:44:F5:AB
            X509v3 Authority Key Identifier: 
                keyid:24:DF:24:E8:8E:78:99:BF:F4:DB:EE:49:9F:CF:DB:E8:CA:44:F5:AB
                DirName:/O=Test Org/CN=Test Org rauc CA Development
                serial:01

            X509v3 Basic Constraints: 
                CA:TRUE
    Signature Algorithm: sha256WithRSAEncryption
         4e:67:83:fa:77:13:45:75:9f:13:c6:d1:d2:f3:cc:cd:b0:59:
         22:f3:ad:1b:0b:0b:2f:a9:20:c0:3c:04:46:ee:95:88:d3:51:
         30:0a:c3:9d:fc:a9:fa:95:69:93:34:83:c6:02:75:ae:8a:2a:
         cd:30:b2:47:b8:f5:7f:32:f0:95:c1:88:59:d7:7a:4b:14:66:
         b5:03:c1:05:4f:c8:ea:40:c2:02:c2:13:c0:2c:cb:a3:0f:38:
         60:50:84:f3:b4:65:61:5a:36:75:f1:f6:cf:c0:cd:ab:10:32:
         e7:3a:52:81:5a:9c:88:e5:41:fa:06:03:00:96:38:ed:8f:56:
         99:11:4d:e8:55:55:bc:8e:e7:b7:58:bb:05:ec:33:d2:0d:36:
         b9:f4:c2:72:16:39:dc:ef:6b:83:f5:8c:81:67:85:36:57:aa:
         e4:45:80:27:1f:7e:79:07:3a:e7:b1:a1:dc:8c:2c:92:be:a6:
         c8:a4:fd:99:07:95:db:22:80:17:85:ed:e6:68:c9:02:cf:19:
         0b:fd:d4:55:c6:c1:8e:50:73:1d:01:a9:1e:06:47:a7:25:d5:
         6c:f6:7f:de:30:cf:4b:71:a3:69:73:1e:c6:d4:66:10:90:6c:
         8f:bc:a4:5c:22:e5:3e:40:a4:e8:23:69:05:d4:24:19:04:08:
         e7:4d:60:b7
-----BEGIN CERTIFICATE-----
MIIDhjCCAm6gAwIBAgIBATANBgkqhkiG9w0BAQsFADA6MREwDwYDVQQKDAhUZXN0
IE9yZzElMCMGA1UEAwwcVGVzdCBPcmcgcmF1YyBDQSBEZXZlbG9wbWVudDAgFw03
MDAxMDEwMDAwMDBaGA85OTk5MTIzMTIzNTk1OVowOjERMA8GA1UECgwIVGVzdCBP
cmcxJTAjBgNVBAMMHFRlc3QgT3JnIHJhdWMgQ0EgRGV2ZWxvcG1lbnQwggEiMA0G
CSqGSIb3DQEBAQUAA4IBDwAwggEKAoIBAQCn4vTZFdanDogff7jOoowJ3bN9mNsh
NLyJxsRFFa5an4+nEAHDeRmpaneVMgUjUuFSXIxvQqqhZcVsMvgQy6/d1OV8ZB57
/cGyzZRcyDILbw/W95xK5SYW5XdjGmEMyp8CHul9KfyXpE8NnM4akP50n42VwjeJ
1k3xb/xo8Iag4fLQUAawPLJZmeFvKPz1q17xokVkYaEuDy1ZuIrANMGkDIX1JiB1
t0Dvq6gLOX+xT6U0FUpOR8d/W4MLCXlhmP6cosqO4qmJO4dRP0YOLhcgJk8jM8i7
Tpotm2ST6y/5FAbSrDbEj0G1eKOWq3yw54k0Z1D0Msepm2Ts1x2rh7ZnAgMBAAGj
gZQwgZEwHQYDVR0OBBYEFCTfJOiOeJm/9NvuSZ/P2+jKRPWrMGIGA1UdIwRbMFmA
FCTfJOiOeJm/9NvuSZ/P2+jKRPWroT6kPDA6MREwDwYDVQQKDAhUZXN0IE9yZzEl
MCMGA1UEAwwcVGVzdCBPcmcgcmF1YyBDQSBEZXZlbG9wbWVudIIBATAMBgNVHRME
BTADAQH/MA0GCSqGSIb3DQEBCwUAA4IBAQBOZ4P6dxNFdZ8TxtHS88zNsFki860b
CwsvqSDAPARG7pWI01EwCsOd/Kn6lWmTNIPGAnWuiirNMLJHuPV/MvCVwYhZ13pL
FGa1A8EFT8jqQMICwhPALMujDzhgUITztGVhWjZ18fbPwM2rEDLnOlKBWpyI5UH6
BgMAljjtj1aZEU3oVVW8jue3WLsF7DPSDTa59MJyFjnc72uD9YyBZ4U2V6rkRYAn
H355BzrnsaHcjCySvqbIpP2ZB5XbIoAXhe3maMkCzxkL/dRVxsGOUHMdAakeBken
JdVs9n/eMM9LcaNpcx7G1GYQkGyPvKRcIuU+QKToI2kF1CQZBAjnTWC3
-----END CERTIFICATE-----
