Certificate:
    Data:
        Version: 3 (0x2)
        Serial Number: 2 (0x2)
        Signature Algorithm: sha256WithRSAEncryption
        Issuer: O=Test Org, CN=Test Org rauc CA Development
        Validity
            Not Before: Jan  1 00:00:00 1970 GMT
            Not After : Dec 31 23:59:59 9999 GMT
        Subject: O=Test Org, CN=Test Org Development-1
        Subject Public Key Info:
            Public Key Algorithm: rsaEncryption
                RSA Public-Key: (2048 bit)
                Modulus:
                    00:b2:f9:1a:b9:75:7c:af:81:17:32:e3:87:fd:93:
                    9b:78:cb:e3:00:5c:89:4c:09:9a:c8:8e:7c:8f:e3:
                    94:6a:c3:0c:7d:74:8b:c7:b4:6e:5a:72:cf:fe:c6:
                    e9:84:ab:01:e6:f9:c1:14:88:3c:a9:ac:c1:aa:0b:
                    28:21:41:2c:ee:3b:e2:f3:78:5f:eb:a8:5f:5f:fa:
                    ca:7b:4c:1d:8a:b0:12:6d:6d:14:db:92:2a:d2:32:
                    eb:60:d0:cf:6b:cc:65:ef:12:00:3a:3c:fc:80:71:
                    57:5b:c2:ae:40:f1:1a:24:79:ea:b1:a7:26:85:0c:
                    3d:cf:d4:51:8c:78:c9:0b:6e:02:d9:f4:33:d7:2d:
                    44:66:69:4b:ee:11:a0:07:33:01:ab:b0:c3:72:8f:
                    4d:fd:63:2c:e0:6b:8d:f3:9f:df:a9:79:83:d4:3d:
                    b1:be:27:0a:e1:71:a2:ba:83:c6:9c:39:ec:01:fe:
                    8d:64:e0:7c:c3:ce:95:16:5d:7c:ce:9b:df:82:d4:
                    ff:eb:4a:27:dc:77:74:25:e3:65:c8:77:d1:15:e2:
                    5a:fb:94:e9:a4:12:58:34:b4:22:36:a6:77:6d:a9:
                    55:9b:d6:fb:96:b7:cc:be:71:c8:68:df:75:71:59:
                    0f:67:ea:40:24:d4:9e:90:80:db:33:d2:4c:7e:c4:
                    e9:5f
                Exponent: 65537 (0x10001)
        X509v3 extensions:
            X509v3 Subject Key Identifier: 
                66:63:E9:A0:61:96:83:32:D9:24:87:AC:9F:9F:3C:D5:73:3F:E6:5B
            X509v3 Authority Key Identifier: 
                keyid:24:DF:24:E8:8E:78:99:BF:F4:DB:EE:49:9F:CF:DB:E8:CA:44:F5:AB
                DirName:/O=Test Org/CN=Test Org rauc CA Development
                serial:01

            X509v3 Basic Constraints: 
                CA:FALSE
    Signature Algorithm: sha256WithRSAEncryption
         12:67:3b:72:2b:7d:d4:90:9f:9d:46:b4:9a:59:f9:fd:24:b1:
         f8:42:ae:dc:a4:5a:94:0b:69:61:16:aa:00:0a:ed:88:42:1a:
         de:cf:bf:42:08:17:08:4d:92:db:99:d7:75:89:f7:44:c0:ea:
         21:b2:40:90:4d:58:b3:5d:a6:ec:3f:e4:dd:f5:43:a9:1c:b4:
         2b:b2:37:29:a1:52:47:09:70:7e:78:64:4e:cb:9d:54:33:68:
         dc:15:8a:5a:a9:04:28:28:b7:51:07:7d:a7:2f:be:9c:ad:6c:
         02:0b:b0:95:bd:a6:aa:57:d6:b4:a3:9d:41:a3:3a:aa:e0:a5:
         54:ee:42:30:5e:30:06:26:b6:98:b1:20:ea:7d:75:85:08:de:
         8d:8f:18:39:57:20:15:04:33:88:9f:96:06:ca:2a:88:cf:fc:
         05:d1:ad:03:0b:c9:2b:4b:b7:b6:6e:b7:bf:ff:e6:c4:1c:ea:
         6f:57:28:fc:20:94:30:da:28:1c:92:a8:e2:01:ca:00:99:c8:
         e9:85:7d:92:74:c2:7c:73:57:c1:1d:a0:ae:31:b2:bc:ee:b3:
         9e:b8:8e:09:3f:06:e9:fb:54:4d:ac:bf:4b:9f:ba:a6:c2:6e:
         91:ba:26:fc:9d:86:d3:a0:f1:83:25:26:09:ea:22:6e:fd:36:
         ac:93:2e:30
-----BEGIN CERTIFICATE-----
MIIDfTCCAmWgAwIBAgIBAjANBgkqhkiG9w0BAQsFADA6MREwDwYDVQQKDAhUZXN0
IE9yZzElMCMGA1UEAwwcVGVzdCBPcmcgcmF1YyBDQSBEZXZlbG9wbWVudDAgFw03
MDAxMDEwMDAwMDBaGA85OTk5MTIzMTIzNTk1OVowNDERMA8GA1UECgwIVGVzdCBP
cmcxHzAdBgNVBAMMFlRlc3QgT3JnIERldmVsb3BtZW50LTEwggEiMA0GCSqGSIb3
DQEBAQUAA4IBDwAwggEKAoIBAQCy+Rq5dXyvgRcy44f9k5t4y+MAXIlMCZrIjnyP
45Rqwwx9dIvHtG5acs/+xumEqwHm+cEUiDyprMGqCyghQSzuO+LzeF/rqF9f+sp7
TB2KsBJtbRTbkirSMutg0M9rzGXvEgA6PPyAcVdbwq5A8RokeeqxpyaFDD3P1FGM
eMkLbgLZ9DPXLURmaUvuEaAHMwGrsMNyj039Yyzga43zn9+peYPUPbG+JwrhcaK6
g8acOewB/o1k4HzDzpUWXXzOm9+C1P/rSifcd3Ql42XId9EV4lr7lOmkElg0tCI2
pndtqVWb1vuWt8y+ccho33VxWQ9n6kAk1J6QgNsz0kx+xOlfAgMBAAGjgZEwgY4w
HQYDVR0OBBYEFGZj6aBhloMy2SSHrJ+fPNVzP+ZbMGIGA1UdIwRbMFmAFCTfJOiO
eJm/9NvuSZ/P2+jKRPWroT6kPDA6MREwDwYDVQQKDAhUZXN0IE9yZzElMCMGA1UE
AwwcVGVzdCBPcmcgcmF1YyBDQSBEZXZlbG9wbWVudIIBATAJBgNVHRMEAjAAMA0G
CSqGSIb3DQEBCwUAA4IBAQASZztyK33UkJ+dRrSaWfn9JLH4Qq7cpFqUC2lhFqoA
Cu2IQhrez79CCBcITZLbmdd1ifdEwOohskCQTVizXabsP+Td9UOpHLQrsjcpoVJH
CXB+eGROy51UM2jcFYpaqQQoKLdRB32nL76crWwCC7CVvaaqV9a0o51Bozqq4KVU
7kIwXjAGJraYsSDqfXWFCN6Njxg5VyAVBDOIn5YGyiqIz/wF0a0DC8krS7e2bre/
/+bEHOpvVyj8IJQw2igckqjiAcoAmcjphX2SdMJ8c1fBHaCuMbK87rOeuI4JPwbp
+1RNrL9Ln7qmwm6Ruib8nYbToPGDJSYJ6iJu/Tasky4w
-----END CERTIFICATE-----
