Certificate:
    Data:
        Version: 3 (0x2)
        Serial Number: 2 (0x2)
        Signature Algorithm: sha256WithRSAEncryption
        Issuer: O=Test Org, CN=Test Org rauc CA Development
        Validity
            Not Before: Jan  1 00:00:00 1970 GMT
            Not After : Dec 31 23:59:59 9999 GMT
        Subject: O=Test Org, CN=Test Org Development-1
        Subject Public Key Info:
            Public Key Algorithm: rsaEncryption
                RSA Public-Key: (2048 bit)
                Modulus:
                    00:d0:b6:37:c4:24:d5:9b:b8:ee:63:b7:88:a3:83:
                    17:99:f2:8a:a8:ff:da:2b:7d:f2:18:41:3f:4b:5f:
                    f8:18:c3:13:6f:03:36:8c:fd:fd:5b:08:5b:18:e7:
                    2c:4f:a5:68:60:ed:01:8a:80:5b:49:79:4d:77:f8:
                    6b:74:f7:54:7f:a6:9e:33:ec:11:4b:05:31:5b:be:
                    ef:c9:ad:12:bc:70:29:5e:a7:46:04:a9:86:99:38:
                    62:2c:b7:39:21:c9:8e:22:32:23:eb:8c:c7:3c:3d:
                    3e:d1:10:d8:a1:97:ed:9d:14:ba:51:60:07:f9:29:
                    3e:d1:2d:37:85:74:a4:12:fc:ec:8b:da:b6:93:fb:
                    08:4e:cd:37:75:a3:a3:36:70:21:fb:8e:36:61:fa:
                    19:11:81:32:2f:e0:e9:25:e4:49:f9:4b:67:f4:8a:
                    a9:59:e8:6a:34:99:4c:cd:19:c5:80:37:fa:af:b6:
                    1f:9f:f0:5e:e5:08:4d:53:44:6d:37:cb:2d:2c:2a:
                    cb:fb:57:84:6a:66:f8:d9:2b:9e:e6:cd:6e:8a:73:
                    85:67:43:ca:5f:27:89:7f:ee:65:82:89:a0:e3:02:
                    ac:db:48:15:16:a7:99:05:ac:eb:0f:75:84:79:69:
                    12:18:64:ab:1f:8c:f8:92:5f:fe:3b:dc:bc:5a:d0:
                    bb:b1
                Exponent: 65537 (0x10001)
        X509v3 extensions:
            X509v3 Subject Key Identifier: 
                05:61:E6:09:D3:62:A5:63:D5:1F:5A:7E:BA:26:BC:D1:BA:0D:3A:4A
            X509v3 Authority Key Identifier: 
                keyid:E8:EF:A6:DF:97:43:88:B1:E5:17:01:C0:4A:07:D2:06:20:4C:19:94
                DirName:/O=Test Org/CN=Test Org rauc CA Development
                serial:01

            X509v3 Basic Constraints: 
                CA:FALSE
    Signature Algorithm: sha256WithRSAEncryption
         5c:24:90:8b:1f:68:b6:4f:a1:7e:ca:20:22:4e:c1:6b:dd:12:
         b2:8a:45:23:0d:0c:8e:0b:d7:92:14:05:54:24:b5:a2:ad:dd:
         bd:77:c0:40:af:3c:eb:76:8d:16:c4:9d:db:f1:d1:1e:fe:96:
         7b:c5:25:d3:63:12:fc:19:0d:c9:46:d2:53:63:88:55:fc:a8:
         ad:e2:4d:5b:57:47:0b:b4:56:25:ba:65:ae:13:e1:84:b0:91:
         cb:2b:c0:e7:78:e9:53:58:c5:7c:58:70:65:e6:f6:08:6f:c9:
         11:00:12:18:f5:23:47:f7:c1:81:b5:01:8c:9c:95:52:19:a1:
         95:9d:72:a5:e0:45:95:df:14:54:70:ee:d1:42:e8:29:91:86:
         be:69:85:66:f0:d1:9f:d7:19:48:7e:25:b8:81:d3:a0:0e:68:
         44:6a:10:2f:06:a5:45:06:75:83:92:7b:1d:cd:fa:f8:1d:58:
         6b:e1:2f:da:ef:8c:35:ce:94:52:ce:31:06:6a:01:07:11:da:
         4c:4a:0a:54:1f:ea:b4:33:5b:3c:16:f4:c4:ab:16:c2:80:2d:
         45:45:e1:9f:11:90:1f:5d:f9:d9:ed:bd:f5:40:fc:c9:f1:8c:
         da:40:ad:b9:80:92:71:82:34:58:2d:a6:74:8c:7c:3c:b1:6f:
         7d:a6:b2:50
-----BEGIN CERTIFICATE-----
MIIDfTCCAmWgAwIBAgIBAjANBgkqhkiG9w0BAQsFADA6MREwDwYDVQQKDAhUZXN0
IE9yZzElMCMGA1UEAwwcVGVzdCBPcmcgcmF1YyBDQSBEZXZlbG9wbWVudDAgFw03
MDAxMDEwMDAwMDBaGA85OTk5MTIzMTIzNTk1OVowNDERMA8GA1UECgwIVGVzdCBP
cmcxHzAdBgNVBAMMFlRlc3QgT3JnIERldmVsb3BtZW50LTEwggEiMA0GCSqGSIb3
DQEBAQUAA4IBDwAwggEKAoIBAQDQtjfEJNWbuO5jt4ijgxeZ8oqo/9orffIYQT9L
X/gYwxNvAzaM/f1bCFsY5yxPpWhg7QGKgFtJeU13+Gt091R/pp4z7BFLBTFbvu/J
rRK8cClep0YEqYaZOGIstzkhyY4iMiPrjMc8PT7RENihl+2dFLpRYAf5KT7RLTeF
dKQS/OyL2raT+whOzTd1o6M2cCH7jjZh+hkRgTIv4Okl5En5S2f0iqlZ6Go0mUzN
GcWAN/qvth+f8F7lCE1TRG03yy0sKsv7V4RqZvjZK57mzW6Kc4VnQ8pfJ4l/7mWC
iaDjAqzbSBUWp5kFrOsPdYR5aRIYZKsfjPiSX/473Lxa0LuxAgMBAAGjgZEwgY4w
HQYDVR0OBBYEFAVh5gnTYqVj1R9afromvNG6DTpKMGIGA1UdIwRbMFmAFOjvpt+X
Q4ix5RcBwEoH0gYgTBmUoT6kPDA6MREwDwYDVQQKDAhUZXN0IE9yZzElMCMGA1UE
AwwcVGVzdCBPcmcgcmF1YyBDQSBEZXZlbG9wbWVudIIBATAJBgNVHRMEAjAAMA0G
CSqGSIb3DQEBCwUAA4IBAQBcJJCLH2i2T6F+yiAiTsFr3RKyikUjDQyOC9eSFAVU
JLWird29d8BArzzrdo0WxJ3b8dEe/pZ7xSXTYxL8GQ3JRtJTY4hV/Kit4k1bV0cL
tFYlumWuE+GEsJHLK8DneOlTWMV8WHBl5vYIb8kRABIY9SNH98GBtQGMnJVSGaGV
nXKl4EWV3xRUcO7RQugpkYa+aYVm8NGf1xlIfiW4gdOgDmhEahAvBqVFBnWDknsd
zfr4HVhr4S/a74w1zpRSzjEGagEHEdpMSgpUH+q0M1s8FvTEqxbCgC1FReGfEZAf
XfnZ7b31QPzJ8YzaQK25gJJxgjRYLaZ0jHw8sW99prJQ
-----END CERTIFICATE-----
